target datalayout = "e-m:e-p270:32:32-p271:32:32-p272:64:64-i64:64-i128:128-f80:128-n8:16:32:64-S128"
target triple = "x86_64-pc-linux-gnu"

%struct.Gia_Man_t_ = type { ptr, ptr, i32, i32, i32, i32, ptr, ptr, i32, i32, i32, ptr, ptr, %struct.Vec_Int_t_, %struct.Vec_Int_t_, i32, i32, i32, %struct.Vec_Int_t_, ptr, ptr, ptr, i32, i32, i32, i32, ptr, ptr, ptr, ptr, ptr, i32, i32, ptr, i32, ptr, ptr, ptr, ptr, ptr, ptr, ptr, ptr, ptr, ptr, ptr, ptr, ptr, ptr, ptr, ptr, ptr, ptr, %struct.Vec_Int_t_, %struct.Vec_Int_t_, ptr, ptr, ptr, ptr, ptr, ptr, ptr, ptr, ptr, ptr, ptr, ptr, ptr, ptr, ptr, ptr, ptr, ptr, ptr, ptr, ptr, i32, float, float, ptr, ptr, i32, ptr, ptr, ptr, ptr, ptr, ptr, ptr, ptr, ptr, ptr, ptr, ptr, ptr, ptr, ptr, i64, i64, ptr, ptr, i32, i32, i32, i32, i32, i32, i32, i32, i32, i32, i32, i32, ptr, ptr, ptr, ptr, ptr, ptr, ptr, ptr, i32, i32, i32, ptr, i32, i32, ptr, ptr, ptr, ptr, ptr, ptr, i32, i32, ptr, %struct.Vec_Int_t_, %struct.Vec_Int_t_, %struct.Vec_Int_t_, ptr, ptr, ptr, i32, i32, i32, i32, ptr, ptr, ptr, ptr, ptr }
%struct.Vec_Int_t_ = type { i32, i32, ptr }
%struct.Vec_Wrd_t_ = type { i32, i32, ptr }
%struct.Gia_Rpr_t_ = type { i32 }

; Function Attrs: inlinehint nounwind uwtable
define internal ptr @Vec_WrdEntryP(ptr noundef %0, i32 noundef %1) #4 {
  %3 = alloca ptr, align 8
  %4 = alloca i32, align 4
  store ptr %0, ptr %3, align 8, !tbaa !91
  store i32 %1, ptr %4, align 4, !tbaa !23
  %5 = load ptr, ptr %3, align 8, !tbaa !91
  %6 = getelementptr inbounds nuw %struct.Vec_Wrd_t_, ptr %5, i32 0, i32 2
  %7 = load ptr, ptr %6, align 8, !tbaa !95
  %8 = load i32, ptr %4, align 4, !tbaa !23
  %9 = sext i32 %8 to i64
  %10 = getelementptr inbounds i64, ptr %7, i64 %9
  ret ptr %10
}

; Function Attrs: inlinehint nounwind uwtable
define internal ptr @Cec3_ObjSim(ptr noundef %0, i32 noundef %1) #4 {
  %3 = alloca ptr, align 8
  %4 = alloca i32, align 4
  store ptr %0, ptr %3, align 8, !tbaa !18
  store i32 %1, ptr %4, align 4, !tbaa !23
  %5 = load ptr, ptr %3, align 8, !tbaa !18
  %6 = getelementptr inbounds nuw %struct.Gia_Man_t_, ptr %5, i32 0, i32 113
  %7 = load ptr, ptr %6, align 8, !tbaa !79
  %8 = load ptr, ptr %3, align 8, !tbaa !18
  %9 = getelementptr inbounds nuw %struct.Gia_Man_t_, ptr %8, i32 0, i32 109
  %10 = load i32, ptr %9, align 8, !tbaa !72
  %11 = load i32, ptr %4, align 4, !tbaa !23
  %12 = mul nsw i32 %10, %11
  %13 = call ptr @Vec_WrdEntryP(ptr noundef %7, i32 noundef %12)
  ret ptr %13
}

; Function Attrs: inlinehint nounwind uwtable
define internal void @Gia_ObjSetNext(ptr noundef %0, i32 noundef %1, i32 noundef %2) #4 {
  %4 = alloca ptr, align 8
  %5 = alloca i32, align 4
  %6 = alloca i32, align 4
  store ptr %0, ptr %4, align 8, !tbaa !18
  store i32 %1, ptr %5, align 4, !tbaa !23
  store i32 %2, ptr %6, align 4, !tbaa !23
  %7 = load i32, ptr %6, align 4, !tbaa !23
  %8 = load ptr, ptr %4, align 8, !tbaa !18
  %9 = getelementptr inbounds nuw %struct.Gia_Man_t_, ptr %8, i32 0, i32 28
  %10 = load ptr, ptr %9, align 8, !tbaa !114
  %11 = load i32, ptr %5, align 4, !tbaa !23
  %12 = sext i32 %11 to i64
  %13 = getelementptr inbounds i32, ptr %10, i64 %12
  store i32 %7, ptr %13, align 4, !tbaa !23
  ret void
}

; Function Attrs: inlinehint nounwind uwtable
define internal void @Gia_ObjSetRepr(ptr noundef %0, i32 noundef %1, i32 noundef %2) #4 {
  %4 = alloca ptr, align 8
  %5 = alloca i32, align 4
  %6 = alloca i32, align 4
  store ptr %0, ptr %4, align 8, !tbaa !18
  store i32 %1, ptr %5, align 4, !tbaa !23
  store i32 %2, ptr %6, align 4, !tbaa !23
  %7 = load i32, ptr %6, align 4, !tbaa !23
  %8 = load ptr, ptr %4, align 8, !tbaa !18
  %9 = getelementptr inbounds nuw %struct.Gia_Man_t_, ptr %8, i32 0, i32 27
  %10 = load ptr, ptr %9, align 8, !tbaa !99
  %11 = load i32, ptr %5, align 4, !tbaa !23
  %12 = sext i32 %11 to i64
  %13 = getelementptr inbounds %struct.Gia_Rpr_t_, ptr %10, i64 %12
  %14 = load i32, ptr %13, align 4
  %15 = and i32 %7, 268435455
  %16 = and i32 %14, -268435456
  %17 = or i32 %16, %15
  store i32 %17, ptr %13, align 4
  ret void
}

; Function Attrs: inlinehint nounwind uwtable
define internal i32 @Cec3_ObjSimEqual(ptr noundef %0, i32 noundef %1, i32 noundef %2) #4 {
  %4 = alloca i32, align 4
  %5 = alloca ptr, align 8
  %6 = alloca i32, align 4
  %7 = alloca i32, align 4
  %8 = alloca i32, align 4
  %9 = alloca ptr, align 8
  %10 = alloca ptr, align 8
  %11 = alloca i32, align 4
  store ptr %0, ptr %5, align 8, !tbaa !18
  store i32 %1, ptr %6, align 4, !tbaa !23
  store i32 %2, ptr %7, align 4, !tbaa !23
  call void @llvm.lifetime.start.p0(i64 4, ptr %8) #12
  call void @llvm.lifetime.start.p0(i64 8, ptr %9) #12
  %12 = load ptr, ptr %5, align 8, !tbaa !18
  %13 = load i32, ptr %6, align 4, !tbaa !23
  %14 = call ptr @Cec3_ObjSim(ptr noundef %12, i32 noundef %13)
  store ptr %14, ptr %9, align 8, !tbaa !70
  call void @llvm.lifetime.start.p0(i64 8, ptr %10) #12
  %15 = load ptr, ptr %5, align 8, !tbaa !18
  %16 = load i32, ptr %7, align 4, !tbaa !23
  %17 = call ptr @Cec3_ObjSim(ptr noundef %15, i32 noundef %16)
  store ptr %17, ptr %10, align 8, !tbaa !70
  %18 = load ptr, ptr %9, align 8, !tbaa !70
  %19 = getelementptr inbounds i64, ptr %18, i64 0
  %20 = load i64, ptr %19, align 8, !tbaa !73
  %21 = and i64 %20, 1
  %22 = load ptr, ptr %10, align 8, !tbaa !70
  %23 = getelementptr inbounds i64, ptr %22, i64 0
  %24 = load i64, ptr %23, align 8, !tbaa !73
  %25 = and i64 %24, 1
  %26 = icmp eq i64 %21, %25
  br i1 %26, label %27, label %52

27:                                               ; preds = %3
  store i32 0, ptr %8, align 4, !tbaa !23
  br label %28

28:                                               ; preds = %48, %27
  %29 = load i32, ptr %8, align 4, !tbaa !23
  %30 = load ptr, ptr %5, align 8, !tbaa !18
  %31 = getelementptr inbounds nuw %struct.Gia_Man_t_, ptr %30, i32 0, i32 109
  %32 = load i32, ptr %31, align 8, !tbaa !72
  %33 = icmp slt i32 %29, %32
  br i1 %33, label %34, label %51

34:                                               ; preds = %28
  %35 = load ptr, ptr %9, align 8, !tbaa !70
  %36 = load i32, ptr %8, align 4, !tbaa !23
  %37 = sext i32 %36 to i64
  %38 = getelementptr inbounds i64, ptr %35, i64 %37
  %39 = load i64, ptr %38, align 8, !tbaa !73
  %40 = load ptr, ptr %10, align 8, !tbaa !70
  %41 = load i32, ptr %8, align 4, !tbaa !23
  %42 = sext i32 %41 to i64
  %43 = getelementptr inbounds i64, ptr %40, i64 %42
  %44 = load i64, ptr %43, align 8, !tbaa !73
  %45 = icmp ne i64 %39, %44
  br i1 %45, label %46, label %47

46:                                               ; preds = %34
  store i32 0, ptr %4, align 4
  store i32 1, ptr %11, align 4
  br label %78

47:                                               ; preds = %34
  br label %48

48:                                               ; preds = %47
  %49 = load i32, ptr %8, align 4, !tbaa !23
  %50 = add nsw i32 %49, 1
  store i32 %50, ptr %8, align 4, !tbaa !23
  br label %28, !llvm.loop !85

51:                                               ; preds = %28
  store i32 1, ptr %4, align 4
  store i32 1, ptr %11, align 4
  br label %78

52:                                               ; preds = %3
  store i32 0, ptr %8, align 4, !tbaa !23
  br label %53

53:                                               ; preds = %74, %52
  %54 = load i32, ptr %8, align 4, !tbaa !23
  %55 = load ptr, ptr %5, align 8, !tbaa !18
  %56 = getelementptr inbounds nuw %struct.Gia_Man_t_, ptr %55, i32 0, i32 109
  %57 = load i32, ptr %56, align 8, !tbaa !72
  %58 = icmp slt i32 %54, %57
  br i1 %58, label %59, label %77

59:                                               ; preds = %53
  %60 = load ptr, ptr %9, align 8, !tbaa !70
  %61 = load i32, ptr %8, align 4, !tbaa !23
  %62 = sext i32 %61 to i64
  %63 = getelementptr inbounds i64, ptr %60, i64 %62
  %64 = load i64, ptr %63, align 8, !tbaa !73
  %65 = load ptr, ptr %10, align 8, !tbaa !70
  %66 = load i32, ptr %8, align 4, !tbaa !23
  %67 = sext i32 %66 to i64
  %68 = getelementptr inbounds i64, ptr %65, i64 %67
  %69 = load i64, ptr %68, align 8, !tbaa !73
  %70 = xor i64 %69, -1
  %71 = icmp ne i64 %64, %70
  br i1 %71, label %72, label %73

72:                                               ; preds = %59
  store i32 0, ptr %4, align 4
  store i32 1, ptr %11, align 4
  br label %78

73:                                               ; preds = %59
  br label %74

74:                                               ; preds = %73
  %75 = load i32, ptr %8, align 4, !tbaa !23
  %76 = add nsw i32 %75, 1
  store i32 %76, ptr %8, align 4, !tbaa !23
  br label %53, !llvm.loop !86

77:                                               ; preds = %53
  store i32 1, ptr %4, align 4
  store i32 1, ptr %11, align 4
  br label %78

78:                                               ; preds = %77, %72, %51, %46
  call void @llvm.lifetime.end.p0(i64 8, ptr %10) #12
  call void @llvm.lifetime.end.p0(i64 8, ptr %9) #12
  call void @llvm.lifetime.end.p0(i64 4, ptr %8) #12
  %79 = load i32, ptr %4, align 4
  ret i32 %79
}

; Function Attrs: inlinehint nounwind uwtable
define internal i32 @Gia_ObjNext(ptr noundef %0, i32 noundef %1) #4 {
  %3 = alloca ptr, align 8
  %4 = alloca i32, align 4
  store ptr %0, ptr %3, align 8, !tbaa !18
  store i32 %1, ptr %4, align 4, !tbaa !23
  %5 = load ptr, ptr %3, align 8, !tbaa !18
  %6 = getelementptr inbounds nuw %struct.Gia_Man_t_, ptr %5, i32 0, i32 28
  %7 = load ptr, ptr %6, align 8, !tbaa !114
  %8 = load i32, ptr %4, align 4, !tbaa !23
  %9 = sext i32 %8 to i64
  %10 = getelementptr inbounds i32, ptr %7, i64 %9
  %11 = load i32, ptr %10, align 4, !tbaa !23
  ret i32 %11
}

; Function Attrs: nounwind uwtable
define void @Cec3_ManSimClassRefineOne(ptr noundef %0, i32 noundef %1) #0 {
  %3 = alloca ptr, align 8
  %4 = alloca i32, align 4
  %5 = alloca i32, align 4
  %6 = alloca i32, align 4
  %7 = alloca i32, align 4
  %8 = alloca i32, align 4
  %9 = alloca i32, align 4
  store ptr %0, ptr %3, align 8, !tbaa !18
  store i32 %1, ptr %4, align 4, !tbaa !23
  call void @llvm.lifetime.start.p0(i64 4, ptr %5) #12
  call void @llvm.lifetime.start.p0(i64 4, ptr %6) #12
  %10 = load i32, ptr %4, align 4, !tbaa !23
  store i32 %10, ptr %6, align 4, !tbaa !23
  call void @llvm.lifetime.start.p0(i64 4, ptr %7) #12
  call void @llvm.lifetime.start.p0(i64 4, ptr %8) #12
  %11 = load ptr, ptr %3, align 8, !tbaa !18
  %12 = load i32, ptr %4, align 4, !tbaa !23
  %13 = call i32 @Gia_ObjNext(ptr noundef %11, i32 noundef %12)
  store i32 %13, ptr %8, align 4, !tbaa !23
  br label %14

14:                                               ; preds = %27, %2
  %15 = load i32, ptr %8, align 4, !tbaa !23
  %16 = icmp sgt i32 %15, 0
  br i1 %16, label %17, label %31

17:                                               ; preds = %14
  %18 = load ptr, ptr %3, align 8, !tbaa !18
  %19 = load i32, ptr %4, align 4, !tbaa !23
  %20 = load i32, ptr %8, align 4, !tbaa !23
  %21 = call i32 @Cec3_ObjSimEqual(ptr noundef %18, i32 noundef %19, i32 noundef %20)
  %22 = icmp ne i32 %21, 0
  br i1 %22, label %23, label %25

23:                                               ; preds = %17
  %24 = load i32, ptr %8, align 4, !tbaa !23
  store i32 %24, ptr %6, align 4, !tbaa !23
  br label %26

25:                                               ; preds = %17
  br label %31

26:                                               ; preds = %23
  br label %27

27:                                               ; preds = %26
  %28 = load ptr, ptr %3, align 8, !tbaa !18
  %29 = load i32, ptr %8, align 4, !tbaa !23
  %30 = call i32 @Gia_ObjNext(ptr noundef %28, i32 noundef %29)
  store i32 %30, ptr %8, align 4, !tbaa !23
  br label %14, !llvm.loop !108

31:                                               ; preds = %25, %14
  %32 = load i32, ptr %8, align 4, !tbaa !23
  %33 = icmp sle i32 %32, 0
  br i1 %33, label %34, label %35

34:                                               ; preds = %31
  store i32 1, ptr %9, align 4
  br label %74

35:                                               ; preds = %31
  %36 = load ptr, ptr %3, align 8, !tbaa !18
  %37 = load i32, ptr %8, align 4, !tbaa !23
  call void @Gia_ObjSetRepr(ptr noundef %36, i32 noundef %37, i32 noundef 268435455)
  %38 = load i32, ptr %8, align 4, !tbaa !23
  store i32 %38, ptr %7, align 4, !tbaa !23
  %39 = load ptr, ptr %3, align 8, !tbaa !18
  %40 = load i32, ptr %8, align 4, !tbaa !23
  %41 = call i32 @Gia_ObjNext(ptr noundef %39, i32 noundef %40)
  store i32 %41, ptr %5, align 4, !tbaa !23
  br label %42

42:                                               ; preds = %65, %35
  %43 = load i32, ptr %5, align 4, !tbaa !23
  %44 = icmp sgt i32 %43, 0
  br i1 %44, label %45, label %69

45:                                               ; preds = %42
  %46 = load ptr, ptr %3, align 8, !tbaa !18
  %47 = load i32, ptr %4, align 4, !tbaa !23
  %48 = load i32, ptr %5, align 4, !tbaa !23
  %49 = call i32 @Cec3_ObjSimEqual(ptr noundef %46, i32 noundef %47, i32 noundef %48)
  %50 = icmp ne i32 %49, 0
  br i1 %50, label %51, label %56

51:                                               ; preds = %45
  %52 = load ptr, ptr %3, align 8, !tbaa !18
  %53 = load i32, ptr %6, align 4, !tbaa !23
  %54 = load i32, ptr %5, align 4, !tbaa !23
  call void @Gia_ObjSetNext(ptr noundef %52, i32 noundef %53, i32 noundef %54)
  %55 = load i32, ptr %5, align 4, !tbaa !23
  store i32 %55, ptr %6, align 4, !tbaa !23
  br label %64

56:                                               ; preds = %45
  %57 = load ptr, ptr %3, align 8, !tbaa !18
  %58 = load i32, ptr %5, align 4, !tbaa !23
  %59 = load i32, ptr %8, align 4, !tbaa !23
  call void @Gia_ObjSetRepr(ptr noundef %57, i32 noundef %58, i32 noundef %59)
  %60 = load ptr, ptr %3, align 8, !tbaa !18
  %61 = load i32, ptr %7, align 4, !tbaa !23
  %62 = load i32, ptr %5, align 4, !tbaa !23
  call void @Gia_ObjSetNext(ptr noundef %60, i32 noundef %61, i32 noundef %62)
  %63 = load i32, ptr %5, align 4, !tbaa !23
  store i32 %63, ptr %7, align 4, !tbaa !23
  br label %64

64:                                               ; preds = %56, %51
  br label %65

65:                                               ; preds = %64
  %66 = load ptr, ptr %3, align 8, !tbaa !18
  %67 = load i32, ptr %5, align 4, !tbaa !23
  %68 = call i32 @Gia_ObjNext(ptr noundef %66, i32 noundef %67)
  store i32 %68, ptr %5, align 4, !tbaa !23
  br label %42, !llvm.loop !109

69:                                               ; preds = %42
  %70 = load ptr, ptr %3, align 8, !tbaa !18
  %71 = load i32, ptr %6, align 4, !tbaa !23
  call void @Gia_ObjSetNext(ptr noundef %70, i32 noundef %71, i32 noundef -1)
  %72 = load ptr, ptr %3, align 8, !tbaa !18
  %73 = load i32, ptr %7, align 4, !tbaa !23
  call void @Gia_ObjSetNext(ptr noundef %72, i32 noundef %73, i32 noundef -1)
  store i32 0, ptr %9, align 4
  br label %74

74:                                               ; preds = %69, %34
  call void @llvm.lifetime.end.p0(i64 4, ptr %8) #12
  call void @llvm.lifetime.end.p0(i64 4, ptr %7) #12
  call void @llvm.lifetime.end.p0(i64 4, ptr %6) #12
  call void @llvm.lifetime.end.p0(i64 4, ptr %5) #12
  %75 = load i32, ptr %9, align 4
  switch i32 %75, label %77 [
    i32 0, label %76
    i32 1, label %76
  ]

76:                                               ; preds = %74, %74
  ret void

77:                                               ; preds = %74
  unreachable
}