; Function Attrs: nofree norecurse nosync nounwind memory(readwrite, inaccessiblemem: none) uwtable
define void @Cec3_ManSimClassRefineOne(ptr noundef readonly captures(none) %0, i32 noundef %1) local_unnamed_addr #7 {
  %3 = getelementptr i8, ptr %0, i64 200
  %.val44 = load ptr, ptr %3, align 8, !tbaa !96
  %.pn88 = sext i32 %1 to i64
  %.0.in89 = getelementptr inbounds i32, ptr %.val44, i64 %.pn88
  %.090 = load i32, ptr %.0.in89, align 4, !tbaa !34
  %4 = icmp sgt i32 %.090, 0
  br i1 %4, label %.lr.ph, label %Cec3_ObjSimEqual.exit.thread74

.lr.ph:                                           ; preds = %2
  %5 = getelementptr i8, ptr %0, i64 816
  %.val42 = load i32, ptr %5, align 8, !tbaa !58
  %.val42.fr = freeze i32 %.val42
  %6 = getelementptr i8, ptr %0, i64 832
  %.val43 = load ptr, ptr %6, align 8, !tbaa !59
  %7 = getelementptr i8, ptr %.val43, i64 8
  %.val43.val = load ptr, ptr %7, align 8, !tbaa !60
  %8 = mul nsw i32 %.val42.fr, %1
  %9 = sext i32 %8 to i64
  %10 = getelementptr inbounds i64, ptr %.val43.val, i64 %9
  %11 = load i64, ptr %10, align 8, !tbaa !63
  %12 = icmp sgt i32 %.val42.fr, 0
  %wide.trip.count.i = zext nneg i32 %.val42.fr to i64
  br i1 %12, label %.lr.ph.split.us, label %Cec3_ObjSimEqual.exit.thread74

.lr.ph.split.us:                                  ; preds = %.lr.ph, %.loopexit79.us
  %.092.us = phi i32 [ %.0.us, %.loopexit79.us ], [ %.090, %.lr.ph ]
  %.03791.us = phi i32 [ %.092.us, %.loopexit79.us ], [ %1, %.lr.ph ]
  %13 = mul nuw nsw i32 %.val42.fr, %.092.us
  %14 = zext nneg i32 %13 to i64
  %15 = getelementptr inbounds nuw i64, ptr %.val43.val, i64 %14
  %16 = load i64, ptr %15, align 8, !tbaa !63
  %17 = xor i64 %16, %11
  %18 = and i64 %17, 1
  %19 = icmp eq i64 %18, 0
  br i1 %19, label %.lr.ph8.i.us, label %.lr.ph.i.us

.lr.ph.i.us:                                      ; preds = %.lr.ph.split.us, %25
  %indvars.iv.i.us = phi i64 [ %indvars.iv.next.i.us, %25 ], [ 0, %.lr.ph.split.us ]
  %20 = getelementptr inbounds nuw i64, ptr %10, i64 %indvars.iv.i.us
  %21 = load i64, ptr %20, align 8, !tbaa !63
  %22 = getelementptr inbounds nuw i64, ptr %15, i64 %indvars.iv.i.us
  %23 = load i64, ptr %22, align 8, !tbaa !63
  %24 = xor i64 %23, %21
  %.not.i.us = icmp eq i64 %24, -1
  br i1 %.not.i.us, label %25, label %Cec3_ObjSimEqual.exit

25:                                               ; preds = %.lr.ph.i.us
  %indvars.iv.next.i.us = add nuw nsw i64 %indvars.iv.i.us, 1
  %exitcond.not.i.us = icmp eq i64 %indvars.iv.next.i.us, %wide.trip.count.i
  br i1 %exitcond.not.i.us, label %.loopexit79.us, label %.lr.ph.i.us, !llvm.loop !74

.lr.ph8.i.us:                                     ; preds = %.lr.ph.split.us, %30
  %indvars.iv15.i.us = phi i64 [ %indvars.iv.next16.i.us, %30 ], [ 0, %.lr.ph.split.us ]
  %26 = getelementptr inbounds nuw i64, ptr %10, i64 %indvars.iv15.i.us
  %27 = load i64, ptr %26, align 8, !tbaa !63
  %28 = getelementptr inbounds nuw i64, ptr %15, i64 %indvars.iv15.i.us
  %29 = load i64, ptr %28, align 8, !tbaa !63
  %.not21.i.us = icmp eq i64 %27, %29
  br i1 %.not21.i.us, label %30, label %Cec3_ObjSimEqual.exit

30:                                               ; preds = %.lr.ph8.i.us
  %indvars.iv.next16.i.us = add nuw nsw i64 %indvars.iv15.i.us, 1
  %exitcond19.not.i.us = icmp eq i64 %indvars.iv.next16.i.us, %wide.trip.count.i
  br i1 %exitcond19.not.i.us, label %.loopexit79.us, label %.lr.ph8.i.us, !llvm.loop !73

.loopexit79.us:                                   ; preds = %25, %30
  %.pn.us = zext nneg i32 %.092.us to i64
  %.0.in.us = getelementptr inbounds nuw i32, ptr %.val44, i64 %.pn.us
  %.0.us = load i32, ptr %.0.in.us, align 4, !tbaa !34
  %31 = icmp sgt i32 %.0.us, 0
  br i1 %31, label %.lr.ph.split.us, label %Cec3_ObjSimEqual.exit.thread74, !llvm.loop !99

Cec3_ObjSimEqual.exit:                            ; preds = %.lr.ph.i.us, %.lr.ph8.i.us
  %32 = getelementptr i8, ptr %0, i64 192
  %.val48 = load ptr, ptr %32, align 8, !tbaa !94
  %33 = zext nneg i32 %.092.us to i64
  %34 = getelementptr inbounds nuw %struct.Gia_Rpr_t_, ptr %.val48, i64 %33
  %35 = load i32, ptr %34, align 4
  %36 = or i32 %35, 268435455
  store i32 %36, ptr %34, align 4
  %.val46 = load ptr, ptr %3, align 8, !tbaa !96
  %37 = getelementptr inbounds nuw i32, ptr %.val46, i64 %33
  %.03996 = load i32, ptr %37, align 4, !tbaa !34
  %38 = icmp sgt i32 %.03996, 0
  br i1 %38, label %.lr.ph100, label %._crit_edge

.lr.ph100:                                        ; preds = %Cec3_ObjSimEqual.exit
  %39 = and i32 %.092.us, 268435455
  br label %40

40:                                               ; preds = %.lr.ph100, %74
  %.val47114 = phi ptr [ %.val46, %.lr.ph100 ], [ %.val47, %74 ]
  %.03999 = phi i32 [ %.03996, %.lr.ph100 ], [ %.039, %74 ]
  %.03698 = phi i32 [ %.092.us, %.lr.ph100 ], [ %.1, %74 ]
  %.13897 = phi i32 [ %.03791.us, %.lr.ph100 ], [ %.2, %74 ]
  %.val = load i32, ptr %5, align 8, !tbaa !58
  %.val41 = load ptr, ptr %6, align 8, !tbaa !59
  %41 = getelementptr i8, ptr %.val41, i64 8
  %.val41.val = load ptr, ptr %41, align 8, !tbaa !60
  %42 = mul nsw i32 %.val, %1
  %43 = sext i32 %42 to i64
  %44 = getelementptr inbounds i64, ptr %.val41.val, i64 %43
  %45 = mul nsw i32 %.val, %.03999
  %46 = sext i32 %45 to i64
  %47 = getelementptr inbounds i64, ptr %.val41.val, i64 %46
  %48 = load i64, ptr %44, align 8, !tbaa !63
  %49 = load i64, ptr %47, align 8, !tbaa !63
  %50 = xor i64 %49, %48
  %51 = and i64 %50, 1
  %52 = icmp eq i64 %51, 0
  %53 = icmp sgt i32 %.val, 0
  br i1 %52, label %.preheader.i63, label %.preheader1.i54

.preheader1.i54:                                  ; preds = %40
  br i1 %53, label %.lr.ph.preheader.i56, label %.loopexit

.lr.ph.preheader.i56:                             ; preds = %.preheader1.i54
  %wide.trip.count.i57 = zext nneg i32 %.val to i64
  br label %.lr.ph.i58

.preheader.i63:                                   ; preds = %40
  br i1 %53, label %.lr.ph8.preheader.i64, label %.loopexit

.lr.ph8.preheader.i64:                            ; preds = %.preheader.i63
  %wide.trip.count18.i65 = zext nneg i32 %.val to i64
  br label %.lr.ph8.i66

54:                                               ; preds = %.lr.ph8.i66
  %indvars.iv.next16.i69 = add nuw nsw i64 %indvars.iv15.i67, 1
  %exitcond19.not.i70 = icmp eq i64 %indvars.iv.next16.i69, %wide.trip.count18.i65
  br i1 %exitcond19.not.i70, label %.loopexit, label %.lr.ph8.i66, !llvm.loop !73

.lr.ph8.i66:                                      ; preds = %54, %.lr.ph8.preheader.i64
  %indvars.iv15.i67 = phi i64 [ 0, %.lr.ph8.preheader.i64 ], [ %indvars.iv.next16.i69, %54 ]
  %55 = getelementptr inbounds nuw i64, ptr %44, i64 %indvars.iv15.i67
  %56 = load i64, ptr %55, align 8, !tbaa !63
  %57 = getelementptr inbounds nuw i64, ptr %47, i64 %indvars.iv15.i67
  %58 = load i64, ptr %57, align 8, !tbaa !63
  %.not21.i68 = icmp eq i64 %56, %58
  br i1 %.not21.i68, label %54, label %Cec3_ObjSimEqual.exit71

59:                                               ; preds = %.lr.ph.i58
  %indvars.iv.next.i61 = add nuw nsw i64 %indvars.iv.i59, 1
  %exitcond.not.i62 = icmp eq i64 %indvars.iv.next.i61, %wide.trip.count.i57
  br i1 %exitcond.not.i62, label %.loopexit, label %.lr.ph.i58, !llvm.loop !74

.lr.ph.i58:                                       ; preds = %59, %.lr.ph.preheader.i56
  %indvars.iv.i59 = phi i64 [ 0, %.lr.ph.preheader.i56 ], [ %indvars.iv.next.i61, %59 ]
  %60 = getelementptr inbounds nuw i64, ptr %44, i64 %indvars.iv.i59
  %61 = load i64, ptr %60, align 8, !tbaa !63
  %62 = getelementptr inbounds nuw i64, ptr %47, i64 %indvars.iv.i59
  %63 = load i64, ptr %62, align 8, !tbaa !63
  %64 = xor i64 %63, %61
  %.not.i60 = icmp eq i64 %64, -1
  br i1 %.not.i60, label %59, label %Cec3_ObjSimEqual.exit71

.loopexit:                                        ; preds = %59, %54, %.preheader.i63, %.preheader1.i54
  %65 = sext i32 %.13897 to i64
  %66 = getelementptr inbounds i32, ptr %.val47114, i64 %65
  store i32 %.03999, ptr %66, align 4, !tbaa !34
  %.pre = zext nneg i32 %.03999 to i64
  br label %74

Cec3_ObjSimEqual.exit71:                          ; preds = %.lr.ph.i58, %.lr.ph8.i66
  %.val49 = load ptr, ptr %32, align 8, !tbaa !94
  %67 = zext nneg i32 %.03999 to i64
  %68 = getelementptr inbounds nuw %struct.Gia_Rpr_t_, ptr %.val49, i64 %67
  %69 = load i32, ptr %68, align 4
  %70 = and i32 %69, -268435456
  %71 = or disjoint i32 %70, %39
  store i32 %71, ptr %68, align 4
  %.val51 = load ptr, ptr %3, align 8, !tbaa !96
  %72 = zext nneg i32 %.03698 to i64
  %73 = getelementptr inbounds nuw i32, ptr %.val51, i64 %72
  store i32 %.03999, ptr %73, align 4, !tbaa !34
  br label %74

74:                                               ; preds = %.loopexit, %Cec3_ObjSimEqual.exit71
  %.pre-phi = phi i64 [ %.pre, %.loopexit ], [ %67, %Cec3_ObjSimEqual.exit71 ]
  %.val47 = phi ptr [ %.val47114, %.loopexit ], [ %.val51, %Cec3_ObjSimEqual.exit71 ]
  %.2 = phi i32 [ %.03999, %.loopexit ], [ %.13897, %Cec3_ObjSimEqual.exit71 ]
  %.1 = phi i32 [ %.03698, %.loopexit ], [ %.03999, %Cec3_ObjSimEqual.exit71 ]
  %75 = getelementptr inbounds nuw i32, ptr %.val47, i64 %.pre-phi
  %.039 = load i32, ptr %75, align 4, !tbaa !34
  %76 = icmp sgt i32 %.039, 0
  br i1 %76, label %40, label %._crit_edge.loopexit, !llvm.loop !100

._crit_edge.loopexit:                             ; preds = %74
  %.pre117 = zext nneg i32 %.1 to i64
  br label %._crit_edge

._crit_edge:                                      ; preds = %._crit_edge.loopexit, %Cec3_ObjSimEqual.exit
  %.pre-phi118 = phi i64 [ %.pre117, %._crit_edge.loopexit ], [ %33, %Cec3_ObjSimEqual.exit ]
  %.val52 = phi ptr [ %.val47, %._crit_edge.loopexit ], [ %.val46, %Cec3_ObjSimEqual.exit ]
  %.138.lcssa = phi i32 [ %.2, %._crit_edge.loopexit ], [ %.03791.us, %Cec3_ObjSimEqual.exit ]
  %77 = sext i32 %.138.lcssa to i64
  %78 = getelementptr inbounds i32, ptr %.val52, i64 %77
  store i32 -1, ptr %78, align 4, !tbaa !34
  %79 = getelementptr inbounds nuw i32, ptr %.val52, i64 %.pre-phi118
  store i32 -1, ptr %79, align 4, !tbaa !34
  br label %Cec3_ObjSimEqual.exit.thread74

Cec3_ObjSimEqual.exit.thread74:                   ; preds = %.loopexit79.us, %.lr.ph, %2, %._crit_edge
  ret void
}